; ModuleID = '60/1786.c'
source_filename = "60/1786.c"
target datalayout = "e-m:e-p270:32:32-p271:32:32-p272:64:64-i64:64-f80:128-n8:16:32:64-S128"
target triple = "x86_64-pc-linux-gnu"

@.str = private unnamed_addr constant [3 x i8] c"%d\00", align 1
@.str.1 = private unnamed_addr constant [6 x i8] c"%d %d\00", align 1
@.str.2 = private unnamed_addr constant [7 x i8] c"\0A%d %d\00", align 1
@.str.3 = private unnamed_addr constant [6 x i8] c"empty\00", align 1

; Function Attrs: noinline nounwind uwtable
define dso_local i32 @main() #0 {
  %1 = alloca i32, align 4
  %2 = alloca i32, align 4
  %3 = alloca i32, align 4
  %4 = alloca i32, align 4
  %5 = alloca i32, align 4
  %6 = alloca i32, align 4
  %7 = alloca i32, align 4
  %8 = alloca i32, align 4
  store i32 0, i32* %1, align 4
  store i32 0, i32* %7, align 4
  %9 = call i32 (i8*, ...) @__isoc99_scanf(i8* getelementptr inbounds ([3 x i8], [3 x i8]* @.str, i64 0, i64 0), i32* %2)
  store i32 1, i32* %3, align 4
  br label %10

10:                                               ; preds = %74, %0
  %11 = load i32, i32* %3, align 4
  %12 = load i32, i32* %2, align 4
  %13 = sub nsw i32 %12, 2
  %14 = icmp sle i32 %11, %13
  br i1 %14, label %15, label %77

15:                                               ; preds = %10
  store i32 0, i32* %6, align 4
  store i32 1, i32* %5, align 4
  br label %16

16:                                               ; preds = %29, %15
  %17 = load i32, i32* %5, align 4
  %18 = load i32, i32* %3, align 4
  %19 = icmp sle i32 %17, %18
  br i1 %19, label %20, label %32

20:                                               ; preds = %16
  %21 = load i32, i32* %3, align 4
  %22 = load i32, i32* %5, align 4
  %23 = srem i32 %21, %22
  %24 = icmp eq i32 %23, 0
  br i1 %24, label %25, label %28

25:                                               ; preds = %20
  %26 = load i32, i32* %6, align 4
  %27 = add nsw i32 %26, 1
  store i32 %27, i32* %6, align 4
  br label %28

28:                                               ; preds = %25, %20
  br label %29

29:                                               ; preds = %28
  %30 = load i32, i32* %5, align 4
  %31 = add nsw i32 %30, 1
  store i32 %31, i32* %5, align 4
  br label %16

32:                                               ; preds = %16
  %33 = load i32, i32* %6, align 4
  %34 = icmp eq i32 %33, 2
  br i1 %34, label %35, label %73

35:                                               ; preds = %32
  %36 = load i32, i32* %3, align 4
  store i32 %36, i32* %4, align 4
  store i32 0, i32* %8, align 4
  store i32 1, i32* %5, align 4
  br label %37

37:                                               ; preds = %52, %35
  %38 = load i32, i32* %5, align 4
  %39 = load i32, i32* %4, align 4
  %40 = add nsw i32 %39, 2
  %41 = icmp sle i32 %38, %40
  br i1 %41, label %42, label %55

42:                                               ; preds = %37
  %43 = load i32, i32* %4, align 4
  %44 = add nsw i32 %43, 2
  %45 = load i32, i32* %5, align 4
  %46 = srem i32 %44, %45
  %47 = icmp eq i32 %46, 0
  br i1 %47, label %48, label %51

48:                                               ; preds = %42
  %49 = load i32, i32* %8, align 4
  %50 = add nsw i32 %49, 1
  store i32 %50, i32* %8, align 4
  br label %51

51:                                               ; preds = %48, %42
  br label %52

52:                                               ; preds = %51
  %53 = load i32, i32* %5, align 4
  %54 = add nsw i32 %53, 1
  store i32 %54, i32* %5, align 4
  br label %37

55:                                               ; preds = %37
  %56 = load i32, i32* %8, align 4
  %57 = icmp eq i32 %56, 2
  br i1 %57, label %58, label %72

58:                                               ; preds = %55
  %59 = load i32, i32* %4, align 4
  %60 = icmp eq i32 %59, 3
  br i1 %60, label %61, label %66

61:                                               ; preds = %58
  %62 = load i32, i32* %4, align 4
  %63 = load i32, i32* %4, align 4
  %64 = add nsw i32 %63, 2
  %65 = call i32 (i8*, ...) @printf(i8* getelementptr inbounds ([6 x i8], [6 x i8]* @.str.1, i64 0, i64 0), i32 %62, i32 %64)
  br label %71

66:                                               ; preds = %58
  %67 = load i32, i32* %4, align 4
  %68 = load i32, i32* %4, align 4
  %69 = add nsw i32 %68, 2
  %70 = call i32 (i8*, ...) @printf(i8* getelementptr inbounds ([7 x i8], [7 x i8]* @.str.2, i64 0, i64 0), i32 %67, i32 %69)
  br label %71

71:                                               ; preds = %66, %61
  store i32 1, i32* %7, align 4
  br label %72

72:                                               ; preds = %71, %55
  br label %73

73:                                               ; preds = %72, %32
  br label %74

74:                                               ; preds = %73
  %75 = load i32, i32* %3, align 4
  %76 = add nsw i32 %75, 1
  store i32 %76, i32* %3, align 4
  br label %10

77:                                               ; preds = %10
  %78 = load i32, i32* %7, align 4
  %79 = icmp eq i32 %78, 0
  br i1 %79, label %80, label %82

80:                                               ; preds = %77
  %81 = call i32 (i8*, ...) @printf(i8* getelementptr inbounds ([6 x i8], [6 x i8]* @.str.3, i64 0, i64 0))
  br label %82

82:                                               ; preds = %80, %77
  %83 = load i32, i32* %1, align 4
  ret i32 %83
}

declare dso_local i32 @__isoc99_scanf(i8*, ...) #1

declare dso_local i32 @printf(i8*, ...) #1


!llvm.module.flags = !{!0}
!llvm.ident = !{!1}

!0 = !{i32 1, !"wchar_size", i32 4}
!1 = !{!"clang version 10.0.0-4ubuntu1 "}
